target datalayout = "e-m:e-p270:32:32-p271:32:32-p272:64:64-i64:64-i128:128-f80:128-n8:16:32:64-S128"
target triple = "x86_64-unknown-linux-gnu"

%"class.rocksdb::Slice" = type { ptr, i64 }
%"class.rocksdb::Status" = type { i8, i8, i8, i8, i8, i8, %"class.std::unique_ptr" }
%"class.std::unique_ptr" = type { %"struct.std::__uniq_ptr_data" }
%"struct.std::__uniq_ptr_data" = type { %"class.std::__uniq_ptr_impl" }
%"class.std::__uniq_ptr_impl" = type { %"class.std::tuple" }
%"class.std::tuple" = type { %"struct.std::_Tuple_impl" }
%"struct.std::_Tuple_impl" = type { %"struct.std::_Head_base.1" }
%"struct.std::_Head_base.1" = type { ptr }
%"class.rocksdb::PlainTableKeyDecoder" = type <{ %"class.rocksdb::PlainTableFileReader", i8, [3 x i8], i32, i32, [4 x i8], %"class.rocksdb::Slice", %"class.rocksdb::IterKey", ptr, i8, [7 x i8] }>
%"class.rocksdb::PlainTableFileReader" = type { ptr, %"struct.std::array", i32, %"class.rocksdb::Status" }
%"struct.std::array" = type { [2 x %"class.std::unique_ptr.133"] }
%"class.std::unique_ptr.133" = type { %"struct.std::__uniq_ptr_data.134" }
%"struct.std::__uniq_ptr_data.134" = type { %"class.std::__uniq_ptr_impl.135" }
%"class.std::__uniq_ptr_impl.135" = type { %"class.std::tuple.136" }
%"class.std::tuple.136" = type { %"struct.std::_Tuple_impl.137" }
%"struct.std::_Tuple_impl.137" = type { %"struct.std::_Head_base.140" }
%"struct.std::_Head_base.140" = type { ptr }
%"class.rocksdb::IterKey" = type { ptr, ptr, i64, i64, [39 x i8], i8 }
%"class.rocksdb::PlainTableIterator" = type { %"class.rocksdb::InternalIteratorBase", ptr, %"class.rocksdb::PlainTableKeyDecoder", i8, i32, i32, %"class.rocksdb::Slice", %"class.rocksdb::Slice", %"class.rocksdb::Status" }
%"class.rocksdb::InternalIteratorBase" = type { ptr, %"class.rocksdb::Cleanable" }
%"class.rocksdb::Cleanable" = type { %"struct.rocksdb::Cleanable::Cleanup" }
%"struct.rocksdb::Cleanable::Cleanup" = type { ptr, ptr, ptr, ptr }

; Function Attrs: mustprogress nounwind uwtable
define { ptr, i64 } @_ZNK7rocksdb18PlainTableIterator3keyEv(ptr noundef nonnull align 8 dereferenceable(280) %this) unnamed_addr #1 align 2 {
entry:
  %retval = alloca %"class.rocksdb::Slice", align 8
  %this.addr = alloca ptr, align 8
  store ptr %this, ptr %this.addr, align 8
  %this1 = load ptr, ptr %this.addr, align 8
  %key_ = getelementptr inbounds %"class.rocksdb::PlainTableIterator", ptr %this1, i32 0, i32 6
  call void @llvm.memcpy.p0.p0.i64(ptr align 8 %retval, ptr align 8 %key_, i64 16, i1 false)
  %0 = load { ptr, i64 }, ptr %retval, align 8
  ret { ptr, i64 } %0
}