; Function Attrs: mustprogress nofree norecurse nosync nounwind willreturn memory(argmem: read) uwtable
define { ptr, i64 } @_ZNK7rocksdb18PlainTableIterator3keyEv(ptr nocapture noundef nonnull readonly align 8 dereferenceable(280) %this) unnamed_addr #13 align 2 {
entry:
  %key_ = getelementptr inbounds i8, ptr %this, i64 232
  %retval.sroa.0.0.copyload = load ptr, ptr %key_, align 8
  %retval.sroa.2.0.key_.sroa_idx = getelementptr inbounds i8, ptr %this, i64 240
  %retval.sroa.2.0.copyload = load i64, ptr %retval.sroa.2.0.key_.sroa_idx, align 8
  %.fca.0.insert = insertvalue { ptr, i64 } poison, ptr %retval.sroa.0.0.copyload, 0
  %.fca.1.insert = insertvalue { ptr, i64 } %.fca.0.insert, i64 %retval.sroa.2.0.copyload, 1
  ret { ptr, i64 } %.fca.1.insert
}